target datalayout = "e-m:e-p270:32:32-p271:32:32-p272:64:64-i64:64-i128:128-f80:128-n8:16:32:64-S128"
target triple = "x86_64-pc-linux-gnu"

@.str.62 = private unnamed_addr constant [3 x i8] c"%s\00", align 1
@.str.91 = private unnamed_addr constant [5 x i8] c"true\00", align 1
@.str.92 = private unnamed_addr constant [6 x i8] c"false\00", align 1
@.str.93 = private unnamed_addr constant [3 x i8] c"%d\00", align 1
@.str.94 = private unnamed_addr constant [4 x i8] c"%ld\00", align 1
@.str.95 = private unnamed_addr constant [3 x i8] c"%f\00", align 1
@.str.96 = private unnamed_addr constant [4 x i8] c"%lf\00", align 1
@.str.97 = private unnamed_addr constant [9 x i8] c"type %d?\00", align 1

; Function Attrs: mustprogress nounwind uwtable
define hidden void @_ZN23java_lang_boxing_object5printE9BasicTypeP6jvalueP12outputStream(i8 noundef zeroext %0, ptr noundef %1, ptr noundef %2) #1 align 2 {
  %4 = alloca i8, align 1
  %5 = alloca ptr, align 8
  %6 = alloca ptr, align 8
  store i8 %0, ptr %4, align 1
  store ptr %1, ptr %5, align 8
  store ptr %2, ptr %6, align 8
  %7 = load i8, ptr %4, align 1
  %8 = zext i8 %7 to i32
  switch i32 %8, label %47 [
    i32 4, label %9
    i32 5, label %15
    i32 8, label %20
    i32 9, label %25
    i32 10, label %30
    i32 11, label %34
    i32 6, label %38
    i32 7, label %43
  ]

9:                                                ; preds = %3
  %10 = load ptr, ptr %6, align 8
  %11 = load ptr, ptr %5, align 8
  %12 = load i8, ptr %11, align 8
  %13 = icmp ne i8 %12, 0
  %14 = select i1 %13, ptr @.str.91, ptr @.str.92
  call void (ptr, ptr, ...) @_ZN12outputStream5printEPKcz(ptr noundef nonnull align 8 dereferenceable(56) %10, ptr noundef @.str.62, ptr noundef %14)
  br label %51

15:                                               ; preds = %3
  %16 = load ptr, ptr %6, align 8
  %17 = load ptr, ptr %5, align 8
  %18 = load i16, ptr %17, align 8
  %19 = zext i16 %18 to i32
  call void (ptr, ptr, ...) @_ZN12outputStream5printEPKcz(ptr noundef nonnull align 8 dereferenceable(56) %16, ptr noundef @.str.93, i32 noundef %19)
  br label %51

20:                                               ; preds = %3
  %21 = load ptr, ptr %6, align 8
  %22 = load ptr, ptr %5, align 8
  %23 = load i8, ptr %22, align 8
  %24 = sext i8 %23 to i32
  call void (ptr, ptr, ...) @_ZN12outputStream5printEPKcz(ptr noundef nonnull align 8 dereferenceable(56) %21, ptr noundef @.str.93, i32 noundef %24)
  br label %51

25:                                               ; preds = %3
  %26 = load ptr, ptr %6, align 8
  %27 = load ptr, ptr %5, align 8
  %28 = load i16, ptr %27, align 8
  %29 = sext i16 %28 to i32
  call void (ptr, ptr, ...) @_ZN12outputStream5printEPKcz(ptr noundef nonnull align 8 dereferenceable(56) %26, ptr noundef @.str.93, i32 noundef %29)
  br label %51

30:                                               ; preds = %3
  %31 = load ptr, ptr %6, align 8
  %32 = load ptr, ptr %5, align 8
  %33 = load i32, ptr %32, align 8
  call void (ptr, ptr, ...) @_ZN12outputStream5printEPKcz(ptr noundef nonnull align 8 dereferenceable(56) %31, ptr noundef @.str.93, i32 noundef %33)
  br label %51

34:                                               ; preds = %3
  %35 = load ptr, ptr %6, align 8
  %36 = load ptr, ptr %5, align 8
  %37 = load i64, ptr %36, align 8
  call void (ptr, ptr, ...) @_ZN12outputStream5printEPKcz(ptr noundef nonnull align 8 dereferenceable(56) %35, ptr noundef @.str.94, i64 noundef %37)
  br label %51

38:                                               ; preds = %3
  %39 = load ptr, ptr %6, align 8
  %40 = load ptr, ptr %5, align 8
  %41 = load float, ptr %40, align 8
  %42 = fpext float %41 to double
  call void (ptr, ptr, ...) @_ZN12outputStream5printEPKcz(ptr noundef nonnull align 8 dereferenceable(56) %39, ptr noundef @.str.95, double noundef %42)
  br label %51

43:                                               ; preds = %3
  %44 = load ptr, ptr %6, align 8
  %45 = load ptr, ptr %5, align 8
  %46 = load double, ptr %45, align 8
  call void (ptr, ptr, ...) @_ZN12outputStream5printEPKcz(ptr noundef nonnull align 8 dereferenceable(56) %44, ptr noundef @.str.96, double noundef %46)
  br label %51

47:                                               ; preds = %3
  %48 = load ptr, ptr %6, align 8
  %49 = load i8, ptr %4, align 1
  %50 = zext i8 %49 to i32
  call void (ptr, ptr, ...) @_ZN12outputStream5printEPKcz(ptr noundef nonnull align 8 dereferenceable(56) %48, ptr noundef @.str.97, i32 noundef %50)
  br label %51

51:                                               ; preds = %47, %43, %38, %34, %30, %25, %20, %15, %9
  ret void
}