; Function Attrs: mustprogress nounwind uwtable
define hidden void @_ZN23java_lang_boxing_object5printE9BasicTypeP6jvalueP12outputStream(i8 noundef zeroext %0, ptr nocapture noundef readonly %1, ptr noundef %2) local_unnamed_addr #0 align 2 {
  switch i8 %0, label %25 [
    i8 4, label %4
    i8 5, label %7
    i8 8, label %10
    i8 9, label %13
    i8 10, label %16
    i8 11, label %18
    i8 6, label %20
    i8 7, label %23
  ]

4:                                                ; preds = %3
  %5 = load i8, ptr %1, align 8
  %.not = icmp eq i8 %5, 0
  %6 = select i1 %.not, ptr @.str.92, ptr @.str.91
  tail call void (ptr, ptr, ...) @_ZN12outputStream5printEPKcz(ptr noundef nonnull align 8 dereferenceable(56) %2, ptr noundef nonnull @.str.62, ptr noundef nonnull %6) #19
  br label %27

7:                                                ; preds = %3
  %8 = load i16, ptr %1, align 8
  %9 = zext i16 %8 to i32
  tail call void (ptr, ptr, ...) @_ZN12outputStream5printEPKcz(ptr noundef nonnull align 8 dereferenceable(56) %2, ptr noundef nonnull @.str.93, i32 noundef %9) #19
  br label %27

10:                                               ; preds = %3
  %11 = load i8, ptr %1, align 8
  %12 = sext i8 %11 to i32
  tail call void (ptr, ptr, ...) @_ZN12outputStream5printEPKcz(ptr noundef nonnull align 8 dereferenceable(56) %2, ptr noundef nonnull @.str.93, i32 noundef %12) #19
  br label %27

13:                                               ; preds = %3
  %14 = load i16, ptr %1, align 8
  %15 = sext i16 %14 to i32
  tail call void (ptr, ptr, ...) @_ZN12outputStream5printEPKcz(ptr noundef nonnull align 8 dereferenceable(56) %2, ptr noundef nonnull @.str.93, i32 noundef %15) #19
  br label %27

16:                                               ; preds = %3
  %17 = load i32, ptr %1, align 8
  tail call void (ptr, ptr, ...) @_ZN12outputStream5printEPKcz(ptr noundef nonnull align 8 dereferenceable(56) %2, ptr noundef nonnull @.str.93, i32 noundef %17) #19
  br label %27

18:                                               ; preds = %3
  %19 = load i64, ptr %1, align 8
  tail call void (ptr, ptr, ...) @_ZN12outputStream5printEPKcz(ptr noundef nonnull align 8 dereferenceable(56) %2, ptr noundef nonnull @.str.94, i64 noundef %19) #19
  br label %27

20:                                               ; preds = %3
  %21 = load float, ptr %1, align 8
  %22 = fpext float %21 to double
  tail call void (ptr, ptr, ...) @_ZN12outputStream5printEPKcz(ptr noundef nonnull align 8 dereferenceable(56) %2, ptr noundef nonnull @.str.95, double noundef %22) #19
  br label %27

23:                                               ; preds = %3
  %24 = load double, ptr %1, align 8
  tail call void (ptr, ptr, ...) @_ZN12outputStream5printEPKcz(ptr noundef nonnull align 8 dereferenceable(56) %2, ptr noundef nonnull @.str.96, double noundef %24) #19
  br label %27

25:                                               ; preds = %3
  %26 = zext i8 %0 to i32
  tail call void (ptr, ptr, ...) @_ZN12outputStream5printEPKcz(ptr noundef nonnull align 8 dereferenceable(56) %2, ptr noundef nonnull @.str.97, i32 noundef %26) #19
  br label %27

27:                                               ; preds = %25, %23, %20, %18, %16, %13, %10, %7, %4
  ret void
}